target datalayout = "e-m:e-p270:32:32-p271:32:32-p272:64:64-i64:64-i128:128-f80:128-n8:16:32:64-S128"
target triple = "x86_64-pc-linux-gnu"

%struct.anon = type { i32, i32, i32 }
%struct.linger = type { i32, i32 }

@.str.4 = private unnamed_addr constant [25 x i8] c"java/net/SocketException\00", align 1
@.str.17 = private unnamed_addr constant [26 x i8] c"Unsupported socket option\00", align 1
@.str.18 = private unnamed_addr constant [38 x i8] c"sun_nio_ch_sctp_SctpNet.setIntOption0\00", align 1

; Function Attrs: nounwind uwtable
define hidden i32 @mapSocketOption(i32 noundef %0, ptr noundef %1, ptr noundef %2) #0 {
  %4 = alloca i32, align 4
  %5 = alloca i32, align 4
  %6 = alloca ptr, align 8
  %7 = alloca ptr, align 8
  %8 = alloca i32, align 4
  store i32 %0, ptr %5, align 4
  store ptr %1, ptr %6, align 8
  store ptr %2, ptr %7, align 8
  store i32 0, ptr %8, align 4
  br label %9

9:                                                ; preds = %34, %3
  %10 = load i32, ptr %8, align 4
  %11 = icmp slt i32 %10, 7
  br i1 %11, label %12, label %37

12:                                               ; preds = %9
  %13 = load i32, ptr %5, align 4
  %14 = load i32, ptr %8, align 4
  %15 = sext i32 %14 to i64
  %16 = getelementptr inbounds [7 x %struct.anon], ptr @mapSocketOption.opts, i64 0, i64 %15
  %17 = getelementptr inbounds %struct.anon, ptr %16, i32 0, i32 0
  %18 = load i32, ptr %17, align 4
  %19 = icmp eq i32 %13, %18
  br i1 %19, label %20, label %33

20:                                               ; preds = %12
  %21 = load i32, ptr %8, align 4
  %22 = sext i32 %21 to i64
  %23 = getelementptr inbounds [7 x %struct.anon], ptr @mapSocketOption.opts, i64 0, i64 %22
  %24 = getelementptr inbounds %struct.anon, ptr %23, i32 0, i32 1
  %25 = load i32, ptr %24, align 4
  %26 = load ptr, ptr %6, align 8
  store i32 %25, ptr %26, align 4
  %27 = load i32, ptr %8, align 4
  %28 = sext i32 %27 to i64
  %29 = getelementptr inbounds [7 x %struct.anon], ptr @mapSocketOption.opts, i64 0, i64 %28
  %30 = getelementptr inbounds %struct.anon, ptr %29, i32 0, i32 2
  %31 = load i32, ptr %30, align 4
  %32 = load ptr, ptr %7, align 8
  store i32 %31, ptr %32, align 4
  store i32 0, ptr %4, align 4
  br label %38

33:                                               ; preds = %12
  br label %34

34:                                               ; preds = %33
  %35 = load i32, ptr %8, align 4
  %36 = add nsw i32 %35, 1
  store i32 %36, ptr %8, align 4
  br label %9, !llvm.loop !10

37:                                               ; preds = %9
  store i32 -1, ptr %4, align 4
  br label %38

38:                                               ; preds = %37, %20
  %39 = load i32, ptr %4, align 4
  ret i32 %39
}

; Function Attrs: nounwind uwtable
define void @Java_sun_nio_ch_sctp_SctpNet_setIntOption0(ptr noundef %0, ptr noundef %1, i32 noundef %2, i32 noundef %3, i32 noundef %4) #0 {
  %6 = alloca ptr, align 8
  %7 = alloca ptr, align 8
  %8 = alloca i32, align 4
  %9 = alloca i32, align 4
  %10 = alloca i32, align 4
  %11 = alloca i32, align 4
  %12 = alloca i32, align 4
  %13 = alloca %struct.linger, align 4
  %14 = alloca ptr, align 8
  %15 = alloca i32, align 4
  store ptr %0, ptr %6, align 8
  store ptr %1, ptr %7, align 8
  store i32 %2, ptr %8, align 4
  store i32 %3, ptr %9, align 4
  store i32 %4, ptr %10, align 4
  %16 = load i32, ptr %9, align 4
  %17 = call i32 @mapSocketOption(i32 noundef %16, ptr noundef %11, ptr noundef %12)
  %18 = icmp slt i32 %17, 0
  br i1 %18, label %19, label %21

19:                                               ; preds = %5
  %20 = load ptr, ptr %6, align 8
  call void @JNU_ThrowByNameWithLastError(ptr noundef %20, ptr noundef @.str.4, ptr noundef @.str.17)
  br label %47

21:                                               ; preds = %5
  %22 = load i32, ptr %9, align 4
  %23 = sext i32 %22 to i64
  %24 = icmp eq i64 %23, 7
  br i1 %24, label %25, label %36

25:                                               ; preds = %21
  store ptr %13, ptr %14, align 8
  store i32 8, ptr %15, align 4
  %26 = load i32, ptr %10, align 4
  %27 = icmp sge i32 %26, 0
  br i1 %27, label %28, label %32

28:                                               ; preds = %25
  %29 = getelementptr inbounds %struct.linger, ptr %13, i32 0, i32 0
  store i32 1, ptr %29, align 4
  %30 = load i32, ptr %10, align 4
  %31 = getelementptr inbounds %struct.linger, ptr %13, i32 0, i32 1
  store i32 %30, ptr %31, align 4
  br label %35

32:                                               ; preds = %25
  %33 = getelementptr inbounds %struct.linger, ptr %13, i32 0, i32 0
  store i32 0, ptr %33, align 4
  %34 = getelementptr inbounds %struct.linger, ptr %13, i32 0, i32 1
  store i32 0, ptr %34, align 4
  br label %35

35:                                               ; preds = %32, %28
  br label %37

36:                                               ; preds = %21
  store ptr %10, ptr %14, align 8
  store i32 4, ptr %15, align 4
  br label %37

37:                                               ; preds = %36, %35
  %38 = load i32, ptr %8, align 4
  %39 = load i32, ptr %11, align 4
  %40 = load i32, ptr %12, align 4
  %41 = load ptr, ptr %14, align 8
  %42 = load i32, ptr %15, align 4
  %43 = call i32 @NET_SetSockOpt(i32 noundef %38, i32 noundef %39, i32 noundef %40, ptr noundef %41, i32 noundef %42)
  %44 = icmp slt i32 %43, 0
  br i1 %44, label %45, label %47

45:                                               ; preds = %37
  %46 = load ptr, ptr %6, align 8
  call void @JNU_ThrowByNameWithLastError(ptr noundef %46, ptr noundef @.str.4, ptr noundef @.str.18)
  br label %47

47:                                               ; preds = %45, %37, %19
  ret void
}