; Function Attrs: nounwind uwtable
define void @Java_sun_nio_ch_sctp_SctpNet_setIntOption0(ptr noundef %0, ptr nocapture noundef readnone %1, i32 noundef %2, i32 noundef %3, i32 noundef %4) local_unnamed_addr #1 {
  %6 = alloca i32, align 4
  %7 = alloca %struct.linger, align 4
  store i32 %4, ptr %6, align 4
  br label %9

8:                                                ; preds = %9
  %indvars.iv.next.i = add nuw nsw i64 %indvars.iv.i, 1
  %exitcond.not.i = icmp eq i64 %indvars.iv.next.i, 7
  br i1 %exitcond.not.i, label %13, label %9, !llvm.loop !10

9:                                                ; preds = %8, %5
  %indvars.iv.i = phi i64 [ 0, %5 ], [ %indvars.iv.next.i, %8 ]
  %10 = getelementptr inbounds [7 x %struct.anon], ptr @mapSocketOption.opts, i64 0, i64 %indvars.iv.i
  %11 = load i32, ptr %10, align 4
  %12 = icmp eq i32 %11, %3
  br i1 %12, label %14, label %8

13:                                               ; preds = %8
  tail call void @JNU_ThrowByNameWithLastError(ptr noundef %0, ptr noundef nonnull @.str.4, ptr noundef nonnull @.str.17) #10
  br label %26

14:                                               ; preds = %9
  %15 = getelementptr inbounds i8, ptr %10, i64 4
  %16 = load i32, ptr %15, align 4
  %17 = getelementptr inbounds i8, ptr %10, i64 8
  %18 = load i32, ptr %17, align 4
  %19 = icmp eq i32 %3, 7
  br i1 %19, label %.sink.split, label %22

.sink.split:                                      ; preds = %14
  %20 = icmp sgt i32 %4, -1
  %21 = getelementptr inbounds i8, ptr %7, i64 4
  %. = zext i1 %20 to i32
  %.17 = select i1 %20, i32 %4, i32 0
  store i32 %., ptr %7, align 4
  store i32 %.17, ptr %21, align 4
  br label %22

22:                                               ; preds = %.sink.split, %14
  %.06 = phi ptr [ %6, %14 ], [ %7, %.sink.split ]
  %.0 = phi i32 [ 4, %14 ], [ 8, %.sink.split ]
  %23 = call i32 @NET_SetSockOpt(i32 noundef %2, i32 noundef %16, i32 noundef %18, ptr noundef nonnull %.06, i32 noundef %.0) #10
  %24 = icmp slt i32 %23, 0
  br i1 %24, label %25, label %26

25:                                               ; preds = %22
  call void @JNU_ThrowByNameWithLastError(ptr noundef %0, ptr noundef nonnull @.str.4, ptr noundef nonnull @.str.18) #10
  br label %26

26:                                               ; preds = %25, %22, %13
  ret void
}